; Function Attrs: mustprogress uwtable
define hidden void @_ZN6google8protobuf7strings10SubstituteERKNSt7__cxx1112basic_stringIcSt11char_traitsIcESaIcEEERKNS1_8internal13SubstituteArgESD_SD_SD_SD_SD_SD_SD_SD_SD_(ptr dead_on_unwind noalias writable sret(%"class.std::__cxx11::basic_string") align 8 %0, ptr noundef nonnull readonly align 8 captures(none) dereferenceable(32) %1, ptr noundef nonnull align 8 dereferenceable(44) %2, ptr noundef nonnull align 8 dereferenceable(44) %3, ptr noundef nonnull align 8 dereferenceable(44) %4, ptr noundef nonnull align 8 dereferenceable(44) %5, ptr noundef nonnull align 8 dereferenceable(44) %6, ptr noundef nonnull align 8 dereferenceable(44) %7, ptr noundef nonnull align 8 dereferenceable(44) %8, ptr noundef nonnull align 8 dereferenceable(44) %9, ptr noundef nonnull align 8 dereferenceable(44) %10, ptr noundef nonnull align 8 dereferenceable(44) %11) local_unnamed_addr #3 personality ptr @__gxx_personality_v0 {
  %13 = getelementptr inbounds nuw i8, ptr %0, i64 16
  store ptr %13, ptr %0, align 8, !tbaa !3
  %14 = getelementptr inbounds nuw i8, ptr %0, i64 8
  store i64 0, ptr %14, align 8, !tbaa !9
  store i8 0, ptr %13, align 8, !tbaa !12
  %15 = load ptr, ptr %1, align 8, !tbaa !13
  invoke void @_ZN6google8protobuf7strings19SubstituteAndAppendEPNSt7__cxx1112basic_stringIcSt11char_traitsIcESaIcEEEPKcRKNS1_8internal13SubstituteArgESE_SE_SE_SE_SE_SE_SE_SE_SE_(ptr noundef nonnull %0, ptr noundef %15, ptr noundef nonnull align 8 dereferenceable(44) %2, ptr noundef nonnull align 8 dereferenceable(44) %3, ptr noundef nonnull align 8 dereferenceable(44) %4, ptr noundef nonnull align 8 dereferenceable(44) %5, ptr noundef nonnull align 8 dereferenceable(44) %6, ptr noundef nonnull align 8 dereferenceable(44) %7, ptr noundef nonnull align 8 dereferenceable(44) %8, ptr noundef nonnull align 8 dereferenceable(44) %9, ptr noundef nonnull align 8 dereferenceable(44) %10, ptr noundef nonnull align 8 dereferenceable(44) %11)
          to label %22 unwind label %16

16:                                               ; preds = %12
  %17 = landingpad { ptr, i32 }
          cleanup
  %18 = load ptr, ptr %0, align 8, !tbaa !13
  %19 = icmp eq ptr %18, %13
  br i1 %19, label %_ZNKSt7__cxx1112basic_stringIcSt11char_traitsIcESaIcEE11_M_is_localEv.exit.thread.i.i, label %_ZNKSt7__cxx1112basic_stringIcSt11char_traitsIcESaIcEE11_M_is_localEv.exit.i.i

_ZNKSt7__cxx1112basic_stringIcSt11char_traitsIcESaIcEE11_M_is_localEv.exit.thread.i.i: ; preds = %16
  %20 = load i64, ptr %14, align 8, !tbaa !9
  %21 = icmp ult i64 %20, 16
  tail call void @llvm.assume(i1 %21)
  br label %_ZNSt7__cxx1112basic_stringIcSt11char_traitsIcESaIcEED2Ev.exit

_ZNKSt7__cxx1112basic_stringIcSt11char_traitsIcESaIcEE11_M_is_localEv.exit.i.i: ; preds = %16
  tail call void @_ZdlPv(ptr noundef %18) #10
  br label %_ZNSt7__cxx1112basic_stringIcSt11char_traitsIcESaIcEED2Ev.exit

_ZNSt7__cxx1112basic_stringIcSt11char_traitsIcESaIcEED2Ev.exit: ; preds = %_ZNKSt7__cxx1112basic_stringIcSt11char_traitsIcESaIcEE11_M_is_localEv.exit.thread.i.i, %_ZNKSt7__cxx1112basic_stringIcSt11char_traitsIcESaIcEE11_M_is_localEv.exit.i.i
  resume { ptr, i32 } %17

22:                                               ; preds = %12
  ret void
}